target datalayout = "e-m:e-p270:32:32-p271:32:32-p272:64:64-i64:64-i128:128-f80:128-n8:16:32:64-S128"
target triple = "x86_64-pc-linux-gnu"

@.str.97 = private unnamed_addr constant [32 x i8] c"That operation is not supported\00", align 1

; Function Attrs: nounwind uwtable
define internal zeroext i1 @GLES2_SetVSync(ptr noundef %0, i32 noundef %1) #0 {
  %3 = alloca i1, align 1
  %4 = alloca ptr, align 8
  %5 = alloca i32, align 4
  %6 = alloca i32, align 4
  %7 = alloca i32, align 4
  store ptr %0, ptr %4, align 8
  store i32 %1, ptr %5, align 4
  call void @llvm.lifetime.start.p0(i64 4, ptr %6) #6
  store i32 0, ptr %6, align 4
  %8 = load i32, ptr %5, align 4
  %9 = call zeroext i1 @SDL_GL_SetSwapInterval_REAL(i32 noundef %8)
  br i1 %9, label %11, label %10

10:                                               ; preds = %2
  store i1 false, ptr %3, align 1
  store i32 1, ptr %7, align 4
  br label %21

11:                                               ; preds = %2
  %12 = call zeroext i1 @SDL_GL_GetSwapInterval_REAL(ptr noundef %6)
  br i1 %12, label %14, label %13

13:                                               ; preds = %11
  store i1 false, ptr %3, align 1
  store i32 1, ptr %7, align 4
  br label %21

14:                                               ; preds = %11
  %15 = load i32, ptr %6, align 4
  %16 = load i32, ptr %5, align 4
  %17 = icmp ne i32 %15, %16
  br i1 %17, label %18, label %20

18:                                               ; preds = %14
  %19 = call zeroext i1 (ptr, ...) @SDL_SetError_REAL(ptr noundef @.str.97)
  store i1 %19, ptr %3, align 1
  store i32 1, ptr %7, align 4
  br label %21

20:                                               ; preds = %14
  store i1 true, ptr %3, align 1
  store i32 1, ptr %7, align 4
  br label %21

21:                                               ; preds = %20, %18, %13, %10
  call void @llvm.lifetime.end.p0(i64 4, ptr %6) #6
  %22 = load i1, ptr %3, align 1
  ret i1 %22
}