; Function Attrs: nounwind uwtable
define internal zeroext i1 @GLES2_SetVSync(ptr readnone captures(none) %0, i32 noundef %1) #0 {
  %3 = alloca i32, align 4
  call void @llvm.lifetime.start.p0(i64 4, ptr nonnull %3) #10
  store i32 0, ptr %3, align 4
  %4 = tail call zeroext i1 @SDL_GL_SetSwapInterval_REAL(i32 noundef %1) #10
  br i1 %4, label %5, label %11

5:                                                ; preds = %2
  %6 = call zeroext i1 @SDL_GL_GetSwapInterval_REAL(ptr noundef nonnull %3) #10
  br i1 %6, label %7, label %11

7:                                                ; preds = %5
  %8 = load i32, ptr %3, align 4
  %.not = icmp eq i32 %8, %1
  br i1 %.not, label %11, label %9

9:                                                ; preds = %7
  %10 = call zeroext i1 (ptr, ...) @SDL_SetError_REAL(ptr noundef nonnull @.str.97) #10
  br label %11

11:                                               ; preds = %7, %5, %2, %9
  %.0 = phi i1 [ %10, %9 ], [ false, %2 ], [ false, %5 ], [ true, %7 ]
  call void @llvm.lifetime.end.p0(i64 4, ptr nonnull %3) #10
  ret i1 %.0
}